; Function Attrs: mustprogress nofree norecurse nosync nounwind willreturn memory(read, inaccessiblemem: none) uwtable
define hidden noundef nonnull align 8 dereferenceable(656) ptr @_ZNK6hermes11Instruction10getContextEv(ptr nocapture noundef nonnull readonly align 8 dereferenceable(132) %this) local_unnamed_addr #4 align 2 {
entry:
  %Parent = getelementptr inbounds i8, ptr %this, i64 56
  %0 = load ptr, ptr %Parent, align 8
  %Parent.i = getelementptr inbounds i8, ptr %0, i64 72
  %1 = load ptr, ptr %Parent.i, align 8
  %parent_.i.i = getelementptr inbounds i8, ptr %1, i64 56
  %2 = load ptr, ptr %parent_.i.i, align 8
  %Ctx.i.i.i = getelementptr inbounds i8, ptr %2, i64 40
  %3 = load ptr, ptr %Ctx.i.i.i, align 8
  ret ptr %3
}